; Function Attrs: nounwind uwtable
define hidden void @luaE_warning(ptr noundef readonly captures(none) %0, ptr noundef %1, i32 noundef %2) local_unnamed_addr #2 {
  %4 = getelementptr inbounds nuw i8, ptr %0, i64 24
  %5 = load ptr, ptr %4, align 8, !tbaa !34
  %6 = getelementptr inbounds nuw i8, ptr %5, i64 1400
  %7 = load ptr, ptr %6, align 8, !tbaa !69
  %.not = icmp eq ptr %7, null
  br i1 %.not, label %11, label %8

8:                                                ; preds = %3
  %9 = getelementptr inbounds nuw i8, ptr %5, i64 1408
  %10 = load ptr, ptr %9, align 8, !tbaa !70
  tail call void %7(ptr noundef %10, ptr noundef %1, i32 noundef %2) #8
  br label %11

11:                                               ; preds = %8, %3
  ret void
}